target datalayout = "e-m:e-p270:32:32-p271:32:32-p272:64:64-i64:64-i128:128-f80:128-n8:16:32:64-S128"
target triple = "x86_64-pc-linux-gnu"

%"struct.llvm::detail::PunnedPointer.382" = type { [8 x i8] }
%"class.std::__cxx11::basic_string" = type { %"struct.std::__cxx11::basic_string<char>::_Alloc_hider", i64, %union.anon }
%"struct.std::__cxx11::basic_string<char>::_Alloc_hider" = type { ptr }
%union.anon = type { i64, [8 x i8] }
%"class.llvm::PointerUnion.868" = type { %"class.llvm::pointer_union_detail::PointerUnionMembers.869" }
%"class.llvm::pointer_union_detail::PointerUnionMembers.869" = type { %"class.llvm::pointer_union_detail::PointerUnionMembers.870" }
%"class.llvm::pointer_union_detail::PointerUnionMembers.870" = type { %"class.llvm::pointer_union_detail::PointerUnionMembers.871" }
%"class.llvm::pointer_union_detail::PointerUnionMembers.871" = type { %"class.llvm::PointerIntPair.872" }
%"class.llvm::PointerIntPair.872" = type { %"struct.llvm::detail::PunnedPointer.382" }
%"class.clang::DeclListNode::iterator" = type { %"class.llvm::PointerUnion.868" }
%class.anon.884 = type <{ ptr, %"class.clang::DeclListNode::iterator", i8, [7 x i8] }>
%class.anon.886 = type { ptr, %class.anon.884, %"class.std::__cxx11::basic_string" }

; Function Attrs: mustprogress nounwind uwtable
define internal void @"_ZZN5clang17TextTreeStructure8AddChildIZZZNS_9ASTDumper11dumpLookupsEPKNS_11DeclContextEbENK3$_0clEvENKUlvE_clEvEUlvE_EEvN4llvm9StringRefET_ENUlbE_C2ERKSC_"(ptr noundef nonnull align 8 dereferenceable(64) %0, ptr noundef nonnull align 8 dereferenceable(64) %1) unnamed_addr #0 align 2 {
  %3 = alloca ptr, align 8
  %4 = alloca ptr, align 8
  store ptr %0, ptr %3, align 8
  store ptr %1, ptr %4, align 8
  %5 = load ptr, ptr %3, align 8
  %6 = getelementptr inbounds nuw %class.anon.886, ptr %5, i32 0, i32 0
  %7 = load ptr, ptr %4, align 8
  %8 = getelementptr inbounds nuw %class.anon.886, ptr %7, i32 0, i32 0
  call void @llvm.memcpy.p0.p0.i64(ptr align 8 %6, ptr align 8 %8, i64 25, i1 false)
  %9 = getelementptr inbounds nuw %class.anon.886, ptr %5, i32 0, i32 2
  %10 = load ptr, ptr %4, align 8
  %11 = getelementptr inbounds nuw %class.anon.886, ptr %10, i32 0, i32 2
  call void @_ZNSt7__cxx1112basic_stringIcSt11char_traitsIcESaIcEEC1ERKS4_(ptr noundef nonnull align 8 dereferenceable(32) %9, ptr noundef nonnull align 8 dereferenceable(32) %11)
  ret void
}

; Function Attrs: mustprogress nounwind uwtable
define internal void @"_ZZN5clang17TextTreeStructure8AddChildIZZZNS_9ASTDumper11dumpLookupsEPKNS_11DeclContextEbENK3$_0clEvENKUlvE_clEvEUlvE_EEvN4llvm9StringRefET_ENUlbE_D2Ev"(ptr noundef nonnull align 8 dereferenceable(64) %0) unnamed_addr #0 align 2 {
  %2 = alloca ptr, align 8
  store ptr %0, ptr %2, align 8
  %3 = load ptr, ptr %2, align 8
  %4 = getelementptr inbounds nuw %class.anon.886, ptr %3, i32 0, i32 2
  call void @_ZNSt7__cxx1112basic_stringIcSt11char_traitsIcESaIcEED1Ev(ptr noundef nonnull align 8 dereferenceable(32) %4) #9
  ret void
}

; Function Attrs: mustprogress nounwind uwtable
define internal void @"_ZNSt14_Function_base13_Base_managerIZN5clang17TextTreeStructure8AddChildIZZZNS1_9ASTDumper11dumpLookupsEPKNS1_11DeclContextEbENK3$_0clEvENKUlvE_clEvEUlvE_EEvN4llvm9StringRefET_EUlbE_E9_M_createIRKSE_EEvRSt9_Any_dataOSD_St17integral_constantIbLb0EE"(ptr noundef nonnull align 8 dereferenceable(16) %0, ptr noundef nonnull align 8 dereferenceable(64) %1) #0 align 2 {
  %3 = alloca ptr, align 8
  %4 = alloca ptr, align 8
  store ptr %0, ptr %3, align 8
  store ptr %1, ptr %4, align 8
  %5 = call noalias noundef nonnull ptr @_Znwm(i64 noundef 64) #14
  %6 = load ptr, ptr %4, align 8
  call void @"_ZZN5clang17TextTreeStructure8AddChildIZZZNS_9ASTDumper11dumpLookupsEPKNS_11DeclContextEbENK3$_0clEvENKUlvE_clEvEUlvE_EEvN4llvm9StringRefET_ENUlbE_C2ERKSC_"(ptr noundef nonnull align 8 dereferenceable(64) %5, ptr noundef nonnull align 8 dereferenceable(64) %6)
  %7 = load ptr, ptr %3, align 8
  %8 = call noundef nonnull align 8 dereferenceable(8) ptr @"_ZNSt9_Any_data9_M_accessIPZN5clang17TextTreeStructure8AddChildIZZZNS1_9ASTDumper11dumpLookupsEPKNS1_11DeclContextEbENK3$_0clEvENKUlvE_clEvEUlvE_EEvN4llvm9StringRefET_EUlbE_EERSD_v"(ptr noundef nonnull align 8 dereferenceable(16) %7) #9
  store ptr %5, ptr %8, align 8
  ret void
}

; Function Attrs: mustprogress nounwind uwtable
define linkonce_odr hidden noundef ptr @_ZNKSt9_Any_data9_M_accessEv(ptr noundef nonnull align 8 dereferenceable(16) %0) #0 comdat align 2 {
  %2 = alloca ptr, align 8
  store ptr %0, ptr %2, align 8
  %3 = load ptr, ptr %2, align 8
  %4 = getelementptr inbounds [16 x i8], ptr %3, i64 0, i64 0
  ret ptr %4
}

; Function Attrs: mustprogress nounwind uwtable
define internal void @"_ZNSt14_Function_base13_Base_managerIZN5clang17TextTreeStructure8AddChildIZZZNS1_9ASTDumper11dumpLookupsEPKNS1_11DeclContextEbENK3$_0clEvENKUlvE_clEvEUlvE_EEvN4llvm9StringRefET_EUlbE_E10_M_destroyERSt9_Any_dataSt17integral_constantIbLb0EE"(ptr noundef nonnull align 8 dereferenceable(16) %0) #0 align 2 {
  %2 = alloca ptr, align 8
  store ptr %0, ptr %2, align 8
  %3 = load ptr, ptr %2, align 8
  %4 = call noundef nonnull align 8 dereferenceable(8) ptr @"_ZNSt9_Any_data9_M_accessIPZN5clang17TextTreeStructure8AddChildIZZZNS1_9ASTDumper11dumpLookupsEPKNS1_11DeclContextEbENK3$_0clEvENKUlvE_clEvEUlvE_EEvN4llvm9StringRefET_EUlbE_EERSD_v"(ptr noundef nonnull align 8 dereferenceable(16) %3) #9
  %5 = load ptr, ptr %4, align 8
  %6 = icmp eq ptr %5, null
  br i1 %6, label %8, label %7

7:                                                ; preds = %1
  call void @"_ZZN5clang17TextTreeStructure8AddChildIZZZNS_9ASTDumper11dumpLookupsEPKNS_11DeclContextEbENK3$_0clEvENKUlvE_clEvEUlvE_EEvN4llvm9StringRefET_ENUlbE_D2Ev"(ptr noundef nonnull align 8 dereferenceable(64) %5) #9
  call void @_ZdlPvm(ptr noundef %5, i64 noundef 64) #15
  br label %8

8:                                                ; preds = %7, %1
  ret void
}

; Function Attrs: mustprogress nounwind uwtable
define internal void @"_ZNSt14_Function_base13_Base_managerIZN5clang17TextTreeStructure8AddChildIZZZNS1_9ASTDumper11dumpLookupsEPKNS1_11DeclContextEbENK3$_0clEvENKUlvE_clEvEUlvE_EEvN4llvm9StringRefET_EUlbE_E15_M_init_functorIRKSE_EEvRSt9_Any_dataOSD_"(ptr noundef nonnull align 8 dereferenceable(16) %0, ptr noundef nonnull align 8 dereferenceable(64) %1) #0 align 2 {
  %3 = alloca ptr, align 8
  %4 = alloca ptr, align 8
  store ptr %0, ptr %3, align 8
  store ptr %1, ptr %4, align 8
  %5 = load ptr, ptr %3, align 8
  %6 = load ptr, ptr %4, align 8
  call void @"_ZNSt14_Function_base13_Base_managerIZN5clang17TextTreeStructure8AddChildIZZZNS1_9ASTDumper11dumpLookupsEPKNS1_11DeclContextEbENK3$_0clEvENKUlvE_clEvEUlvE_EEvN4llvm9StringRefET_EUlbE_E9_M_createIRKSE_EEvRSt9_Any_dataOSD_St17integral_constantIbLb0EE"(ptr noundef nonnull align 8 dereferenceable(16) %5, ptr noundef nonnull align 8 dereferenceable(64) %6)
  ret void
}

; Function Attrs: mustprogress nounwind uwtable
define linkonce_odr hidden noundef nonnull align 8 dereferenceable(8) ptr @_ZNSt9_Any_data9_M_accessIPKSt9type_infoEERT_v(ptr noundef nonnull align 8 dereferenceable(16) %0) #0 comdat align 2 {
  %2 = alloca ptr, align 8
  store ptr %0, ptr %2, align 8
  %3 = load ptr, ptr %2, align 8
  %4 = call noundef ptr @_ZNSt9_Any_data9_M_accessEv(ptr noundef nonnull align 8 dereferenceable(16) %3) #9
  ret ptr %4
}

; Function Attrs: mustprogress nounwind uwtable
define linkonce_odr hidden noundef ptr @_ZNSt9_Any_data9_M_accessEv(ptr noundef nonnull align 8 dereferenceable(16) %0) #0 comdat align 2 {
  %2 = alloca ptr, align 8
  store ptr %0, ptr %2, align 8
  %3 = load ptr, ptr %2, align 8
  %4 = getelementptr inbounds [16 x i8], ptr %3, i64 0, i64 0
  ret ptr %4
}

; Function Attrs: mustprogress nounwind uwtable
define internal noundef nonnull align 8 dereferenceable(8) ptr @"_ZNKSt9_Any_data9_M_accessIPZN5clang17TextTreeStructure8AddChildIZZZNS1_9ASTDumper11dumpLookupsEPKNS1_11DeclContextEbENK3$_0clEvENKUlvE_clEvEUlvE_EEvN4llvm9StringRefET_EUlbE_EERKSD_v"(ptr noundef nonnull align 8 dereferenceable(16) %0) #0 align 2 {
  %2 = alloca ptr, align 8
  store ptr %0, ptr %2, align 8
  %3 = load ptr, ptr %2, align 8
  %4 = call noundef ptr @_ZNKSt9_Any_data9_M_accessEv(ptr noundef nonnull align 8 dereferenceable(16) %3) #9
  ret ptr %4
}

; Function Attrs: mustprogress nounwind uwtable
define internal noundef zeroext i1 @"_ZNSt14_Function_base13_Base_managerIZN5clang17TextTreeStructure8AddChildIZZZNS1_9ASTDumper11dumpLookupsEPKNS1_11DeclContextEbENK3$_0clEvENKUlvE_clEvEUlvE_EEvN4llvm9StringRefET_EUlbE_E10_M_managerERSt9_Any_dataRKSG_St18_Manager_operation"(ptr noundef nonnull align 8 dereferenceable(16) %0, ptr noundef nonnull align 8 dereferenceable(16) %1, i32 noundef %2) #0 align 2 {
  %4 = alloca ptr, align 8
  %5 = alloca ptr, align 8
  %6 = alloca i32, align 4
  store ptr %0, ptr %4, align 8
  store ptr %1, ptr %5, align 8
  store i32 %2, ptr %6, align 4
  %7 = load i32, ptr %6, align 4
  switch i32 %7, label %22 [
    i32 0, label %8
    i32 1, label %11
    i32 2, label %16
    i32 3, label %20
  ]

8:                                                ; preds = %3
  %9 = load ptr, ptr %4, align 8
  %10 = call noundef nonnull align 8 dereferenceable(8) ptr @_ZNSt9_Any_data9_M_accessIPKSt9type_infoEERT_v(ptr noundef nonnull align 8 dereferenceable(16) %9) #9
  store ptr null, ptr %10, align 8
  br label %22

11:                                               ; preds = %3
  %12 = load ptr, ptr %5, align 8
  %13 = call noundef ptr @"_ZNSt14_Function_base13_Base_managerIZN5clang17TextTreeStructure8AddChildIZZZNS1_9ASTDumper11dumpLookupsEPKNS1_11DeclContextEbENK3$_0clEvENKUlvE_clEvEUlvE_EEvN4llvm9StringRefET_EUlbE_E14_M_get_pointerERKSt9_Any_data"(ptr noundef nonnull align 8 dereferenceable(16) %12) #9
  %14 = load ptr, ptr %4, align 8
  %15 = call noundef nonnull align 8 dereferenceable(8) ptr @"_ZNSt9_Any_data9_M_accessIPZN5clang17TextTreeStructure8AddChildIZZZNS1_9ASTDumper11dumpLookupsEPKNS1_11DeclContextEbENK3$_0clEvENKUlvE_clEvEUlvE_EEvN4llvm9StringRefET_EUlbE_EERSD_v"(ptr noundef nonnull align 8 dereferenceable(16) %14) #9
  store ptr %13, ptr %15, align 8
  br label %22

16:                                               ; preds = %3
  %17 = load ptr, ptr %4, align 8
  %18 = load ptr, ptr %5, align 8
  %19 = call noundef ptr @"_ZNSt14_Function_base13_Base_managerIZN5clang17TextTreeStructure8AddChildIZZZNS1_9ASTDumper11dumpLookupsEPKNS1_11DeclContextEbENK3$_0clEvENKUlvE_clEvEUlvE_EEvN4llvm9StringRefET_EUlbE_E14_M_get_pointerERKSt9_Any_data"(ptr noundef nonnull align 8 dereferenceable(16) %18) #9
  call void @"_ZNSt14_Function_base13_Base_managerIZN5clang17TextTreeStructure8AddChildIZZZNS1_9ASTDumper11dumpLookupsEPKNS1_11DeclContextEbENK3$_0clEvENKUlvE_clEvEUlvE_EEvN4llvm9StringRefET_EUlbE_E15_M_init_functorIRKSE_EEvRSt9_Any_dataOSD_"(ptr noundef nonnull align 8 dereferenceable(16) %17, ptr noundef nonnull align 8 dereferenceable(64) %19)
  br label %22

20:                                               ; preds = %3
  %21 = load ptr, ptr %4, align 8
  call void @"_ZNSt14_Function_base13_Base_managerIZN5clang17TextTreeStructure8AddChildIZZZNS1_9ASTDumper11dumpLookupsEPKNS1_11DeclContextEbENK3$_0clEvENKUlvE_clEvEUlvE_EEvN4llvm9StringRefET_EUlbE_E10_M_destroyERSt9_Any_dataSt17integral_constantIbLb0EE"(ptr noundef nonnull align 8 dereferenceable(16) %21)
  br label %22

22:                                               ; preds = %20, %16, %11, %8, %3
  ret i1 false
}

; Function Attrs: mustprogress nounwind uwtable
define internal noundef nonnull align 8 dereferenceable(8) ptr @"_ZNSt9_Any_data9_M_accessIPZN5clang17TextTreeStructure8AddChildIZZZNS1_9ASTDumper11dumpLookupsEPKNS1_11DeclContextEbENK3$_0clEvENKUlvE_clEvEUlvE_EEvN4llvm9StringRefET_EUlbE_EERSD_v"(ptr noundef nonnull align 8 dereferenceable(16) %0) #0 align 2 {
  %2 = alloca ptr, align 8
  store ptr %0, ptr %2, align 8
  %3 = load ptr, ptr %2, align 8
  %4 = call noundef ptr @_ZNSt9_Any_data9_M_accessEv(ptr noundef nonnull align 8 dereferenceable(16) %3) #9
  ret ptr %4
}

; Function Attrs: mustprogress nounwind uwtable
define internal noundef ptr @"_ZNSt14_Function_base13_Base_managerIZN5clang17TextTreeStructure8AddChildIZZZNS1_9ASTDumper11dumpLookupsEPKNS1_11DeclContextEbENK3$_0clEvENKUlvE_clEvEUlvE_EEvN4llvm9StringRefET_EUlbE_E14_M_get_pointerERKSt9_Any_data"(ptr noundef nonnull align 8 dereferenceable(16) %0) #0 align 2 {
  %2 = alloca ptr, align 8
  store ptr %0, ptr %2, align 8
  %3 = load ptr, ptr %2, align 8
  %4 = call noundef nonnull align 8 dereferenceable(8) ptr @"_ZNKSt9_Any_data9_M_accessIPZN5clang17TextTreeStructure8AddChildIZZZNS1_9ASTDumper11dumpLookupsEPKNS1_11DeclContextEbENK3$_0clEvENKUlvE_clEvEUlvE_EEvN4llvm9StringRefET_EUlbE_EERKSD_v"(ptr noundef nonnull align 8 dereferenceable(16) %3) #9
  %5 = load ptr, ptr %4, align 8
  ret ptr %5
}

; Function Attrs: mustprogress nounwind uwtable
define internal noundef zeroext i1 @"_ZNSt17_Function_handlerIFvbEZN5clang17TextTreeStructure8AddChildIZZZNS1_9ASTDumper11dumpLookupsEPKNS1_11DeclContextEbENK3$_0clEvENKUlvE_clEvEUlvE_EEvN4llvm9StringRefET_EUlbE_E10_M_managerERSt9_Any_dataRKSG_St18_Manager_operation"(ptr noundef nonnull align 8 dereferenceable(16) %0, ptr noundef nonnull align 8 dereferenceable(16) %1, i32 noundef %2) #0 align 2 {
  %4 = alloca ptr, align 8
  %5 = alloca ptr, align 8
  %6 = alloca i32, align 4
  store ptr %0, ptr %4, align 8
  store ptr %1, ptr %5, align 8
  store i32 %2, ptr %6, align 4
  %7 = load i32, ptr %6, align 4
  switch i32 %7, label %13 [
    i32 1, label %8
  ]

8:                                                ; preds = %3
  %9 = load ptr, ptr %5, align 8
  %10 = call noundef ptr @"_ZNSt14_Function_base13_Base_managerIZN5clang17TextTreeStructure8AddChildIZZZNS1_9ASTDumper11dumpLookupsEPKNS1_11DeclContextEbENK3$_0clEvENKUlvE_clEvEUlvE_EEvN4llvm9StringRefET_EUlbE_E14_M_get_pointerERKSt9_Any_data"(ptr noundef nonnull align 8 dereferenceable(16) %9) #9
  %11 = load ptr, ptr %4, align 8
  %12 = call noundef nonnull align 8 dereferenceable(8) ptr @"_ZNSt9_Any_data9_M_accessIPZN5clang17TextTreeStructure8AddChildIZZZNS1_9ASTDumper11dumpLookupsEPKNS1_11DeclContextEbENK3$_0clEvENKUlvE_clEvEUlvE_EEvN4llvm9StringRefET_EUlbE_EERSD_v"(ptr noundef nonnull align 8 dereferenceable(16) %11) #9
  store ptr %10, ptr %12, align 8
  br label %18

13:                                               ; preds = %3
  %14 = load ptr, ptr %4, align 8
  %15 = load ptr, ptr %5, align 8
  %16 = load i32, ptr %6, align 4
  %17 = call noundef zeroext i1 @"_ZNSt14_Function_base13_Base_managerIZN5clang17TextTreeStructure8AddChildIZZZNS1_9ASTDumper11dumpLookupsEPKNS1_11DeclContextEbENK3$_0clEvENKUlvE_clEvEUlvE_EEvN4llvm9StringRefET_EUlbE_E10_M_managerERSt9_Any_dataRKSG_St18_Manager_operation"(ptr noundef nonnull align 8 dereferenceable(16) %14, ptr noundef nonnull align 8 dereferenceable(16) %15, i32 noundef %16)
  br label %18

18:                                               ; preds = %13, %8
  ret i1 false
}