; Function Attrs: mustprogress nounwind uwtable
define internal noundef zeroext i1 @"_ZNSt17_Function_handlerIFvbEZN5clang17TextTreeStructure8AddChildIZZZNS1_9ASTDumper11dumpLookupsEPKNS1_11DeclContextEbENK3$_0clEvENKUlvE_clEvEUlvE_EEvN4llvm9StringRefET_EUlbE_E10_M_managerERSt9_Any_dataRKSG_St18_Manager_operation"(ptr nocapture noundef nonnull align 8 dereferenceable(16) %0, ptr nocapture noundef nonnull readonly align 8 dereferenceable(16) %1, i32 noundef %2) #0 align 2 {
  switch i32 %2, label %"_ZNSt14_Function_base13_Base_managerIZN5clang17TextTreeStructure8AddChildIZZZNS1_9ASTDumper11dumpLookupsEPKNS1_11DeclContextEbENK3$_0clEvENKUlvE_clEvEUlvE_EEvN4llvm9StringRefET_EUlbE_E10_M_managerERSt9_Any_dataRKSG_St18_Manager_operation.exit" [
    i32 1, label %4
    i32 0, label %5
    i32 3, label %10
    i32 2, label %6
  ]

4:                                                ; preds = %3
  %.val = load ptr, ptr %1, align 8
  store ptr %.val, ptr %0, align 8
  br label %"_ZNSt14_Function_base13_Base_managerIZN5clang17TextTreeStructure8AddChildIZZZNS1_9ASTDumper11dumpLookupsEPKNS1_11DeclContextEbENK3$_0clEvENKUlvE_clEvEUlvE_EEvN4llvm9StringRefET_EUlbE_E10_M_managerERSt9_Any_dataRKSG_St18_Manager_operation.exit"

5:                                                ; preds = %3
  store ptr null, ptr %0, align 8
  br label %"_ZNSt14_Function_base13_Base_managerIZN5clang17TextTreeStructure8AddChildIZZZNS1_9ASTDumper11dumpLookupsEPKNS1_11DeclContextEbENK3$_0clEvENKUlvE_clEvEUlvE_EEvN4llvm9StringRefET_EUlbE_E10_M_managerERSt9_Any_dataRKSG_St18_Manager_operation.exit"

6:                                                ; preds = %3
  %.val5 = load ptr, ptr %1, align 8
  %7 = tail call noalias noundef nonnull dereferenceable(64) ptr @_Znwm(i64 noundef 64) #20
  tail call void @llvm.memcpy.p0.p0.i64(ptr noundef nonnull align 8 dereferenceable(25) %7, ptr noundef nonnull align 8 dereferenceable(25) %.val5, i64 25, i1 false)
  %8 = getelementptr inbounds nuw i8, ptr %7, i64 32
  %9 = getelementptr inbounds nuw i8, ptr %.val5, i64 32
  tail call void @_ZNSt7__cxx1112basic_stringIcSt11char_traitsIcESaIcEEC1ERKS4_(ptr noundef nonnull align 8 dereferenceable(32) %8, ptr noundef nonnull align 8 dereferenceable(32) %9) #18
  store ptr %7, ptr %0, align 8
  br label %"_ZNSt14_Function_base13_Base_managerIZN5clang17TextTreeStructure8AddChildIZZZNS1_9ASTDumper11dumpLookupsEPKNS1_11DeclContextEbENK3$_0clEvENKUlvE_clEvEUlvE_EEvN4llvm9StringRefET_EUlbE_E10_M_managerERSt9_Any_dataRKSG_St18_Manager_operation.exit"

10:                                               ; preds = %3
  %.val6.i = load ptr, ptr %0, align 8
  %11 = icmp eq ptr %.val6.i, null
  br i1 %11, label %"_ZNSt14_Function_base13_Base_managerIZN5clang17TextTreeStructure8AddChildIZZZNS1_9ASTDumper11dumpLookupsEPKNS1_11DeclContextEbENK3$_0clEvENKUlvE_clEvEUlvE_EEvN4llvm9StringRefET_EUlbE_E10_M_managerERSt9_Any_dataRKSG_St18_Manager_operation.exit", label %12

12:                                               ; preds = %10
  %13 = getelementptr inbounds nuw i8, ptr %.val6.i, i64 32
  tail call void @_ZNSt7__cxx1112basic_stringIcSt11char_traitsIcESaIcEED1Ev(ptr noundef nonnull align 8 dereferenceable(32) %13) #18
  tail call void @_ZdlPvm(ptr noundef nonnull %.val6.i, i64 noundef 64) #23
  br label %"_ZNSt14_Function_base13_Base_managerIZN5clang17TextTreeStructure8AddChildIZZZNS1_9ASTDumper11dumpLookupsEPKNS1_11DeclContextEbENK3$_0clEvENKUlvE_clEvEUlvE_EEvN4llvm9StringRefET_EUlbE_E10_M_managerERSt9_Any_dataRKSG_St18_Manager_operation.exit"

"_ZNSt14_Function_base13_Base_managerIZN5clang17TextTreeStructure8AddChildIZZZNS1_9ASTDumper11dumpLookupsEPKNS1_11DeclContextEbENK3$_0clEvENKUlvE_clEvEUlvE_EEvN4llvm9StringRefET_EUlbE_E10_M_managerERSt9_Any_dataRKSG_St18_Manager_operation.exit": ; preds = %3, %12, %10, %6, %5, %4
  ret i1 false
}